target datalayout = "e-m:e-p270:32:32-p271:32:32-p272:64:64-i64:64-i128:128-f80:128-n8:16:32:64-S128"
target triple = "x86_64-pc-linux-gnu"

%struct.pcre2_memctl = type { ptr, ptr, ptr }
%struct.pcre2_real_compile_context_8 = type { %struct.pcre2_memctl, ptr, ptr, ptr, i64, i64, i16, i16, i32, i32, i32, i32 }

; Function Attrs: nounwind uwtable
define dso_local i32 @pcre2_set_optimize_8(ptr noundef %0, i32 noundef %1) #0 {
  %3 = alloca i32, align 4
  %4 = alloca ptr, align 8
  %5 = alloca i32, align 4
  store ptr %0, ptr %4, align 8, !tbaa !23
  store i32 %1, ptr %5, align 4, !tbaa !30
  %6 = load ptr, ptr %4, align 8, !tbaa !23
  %7 = icmp eq ptr %6, null
  br i1 %7, label %8, label %9

8:                                                ; preds = %2
  store i32 -51, ptr %3, align 4
  br label %49

9:                                                ; preds = %2
  %10 = load i32, ptr %5, align 4, !tbaa !30
  switch i32 %10, label %17 [
    i32 0, label %11
    i32 1, label %14
  ]

11:                                               ; preds = %9
  %12 = load ptr, ptr %4, align 8, !tbaa !23
  %13 = getelementptr inbounds nuw %struct.pcre2_real_compile_context_8, ptr %12, i32 0, i32 11
  store i32 0, ptr %13, align 8, !tbaa !60
  br label %48

14:                                               ; preds = %9
  %15 = load ptr, ptr %4, align 8, !tbaa !23
  %16 = getelementptr inbounds nuw %struct.pcre2_real_compile_context_8, ptr %15, i32 0, i32 11
  store i32 7, ptr %16, align 8, !tbaa !60
  br label %48

17:                                               ; preds = %9
  %18 = load i32, ptr %5, align 4, !tbaa !30
  %19 = icmp uge i32 %18, 64
  br i1 %19, label %20, label %47

20:                                               ; preds = %17
  %21 = load i32, ptr %5, align 4, !tbaa !30
  %22 = icmp ule i32 %21, 69
  br i1 %22, label %23, label %47

23:                                               ; preds = %20
  %24 = load i32, ptr %5, align 4, !tbaa !30
  %25 = and i32 %24, 1
  %26 = icmp ne i32 %25, 0
  br i1 %26, label %27, label %37

27:                                               ; preds = %23
  %28 = load i32, ptr %5, align 4, !tbaa !30
  %29 = lshr i32 %28, 1
  %30 = sub i32 %29, 32
  %31 = shl i32 1, %30
  %32 = xor i32 %31, -1
  %33 = load ptr, ptr %4, align 8, !tbaa !23
  %34 = getelementptr inbounds nuw %struct.pcre2_real_compile_context_8, ptr %33, i32 0, i32 11
  %35 = load i32, ptr %34, align 8, !tbaa !60
  %36 = and i32 %35, %32
  store i32 %36, ptr %34, align 8, !tbaa !60
  br label %46

37:                                               ; preds = %23
  %38 = load i32, ptr %5, align 4, !tbaa !30
  %39 = lshr i32 %38, 1
  %40 = sub i32 %39, 32
  %41 = shl i32 1, %40
  %42 = load ptr, ptr %4, align 8, !tbaa !23
  %43 = getelementptr inbounds nuw %struct.pcre2_real_compile_context_8, ptr %42, i32 0, i32 11
  %44 = load i32, ptr %43, align 8, !tbaa !60
  %45 = or i32 %44, %41
  store i32 %45, ptr %43, align 8, !tbaa !60
  br label %46

46:                                               ; preds = %37, %27
  store i32 0, ptr %3, align 4
  br label %49

47:                                               ; preds = %20, %17
  store i32 -34, ptr %3, align 4
  br label %49

48:                                               ; preds = %14, %11
  store i32 0, ptr %3, align 4
  br label %49

49:                                               ; preds = %48, %47, %46, %8
  %50 = load i32, ptr %3, align 4
  ret i32 %50
}