; Function Attrs: mustprogress nofree norecurse nosync nounwind willreturn memory(argmem: readwrite) uwtable
define dso_local range(i32 -51, 1) i32 @pcre2_set_optimize_8(ptr noundef captures(address_is_null) %0, i32 noundef %1) local_unnamed_addr #6 {
  %3 = icmp eq ptr %0, null
  br i1 %3, label %25, label %4

4:                                                ; preds = %2
  switch i32 %1, label %9 [
    i32 0, label %5
    i32 1, label %7
  ]

5:                                                ; preds = %4
  %6 = getelementptr inbounds nuw i8, ptr %0, i64 80
  store i32 0, ptr %6, align 8, !tbaa !50
  br label %25

7:                                                ; preds = %4
  %8 = getelementptr inbounds nuw i8, ptr %0, i64 80
  store i32 7, ptr %8, align 8, !tbaa !50
  br label %25

9:                                                ; preds = %4
  %10 = add i32 %1, -64
  %or.cond = icmp ult i32 %10, 6
  br i1 %or.cond, label %11, label %25

11:                                               ; preds = %9
  %12 = and i32 %1, 1
  %.not = icmp eq i32 %12, 0
  %13 = lshr i32 %1, 1
  %14 = add nsw i32 %13, -32
  %15 = shl nuw nsw i32 1, %14
  br i1 %.not, label %21, label %16

16:                                               ; preds = %11
  %17 = xor i32 %15, -1
  %18 = getelementptr inbounds nuw i8, ptr %0, i64 80
  %19 = load i32, ptr %18, align 8, !tbaa !50
  %20 = and i32 %19, %17
  store i32 %20, ptr %18, align 8, !tbaa !50
  br label %25

21:                                               ; preds = %11
  %22 = getelementptr inbounds nuw i8, ptr %0, i64 80
  %23 = load i32, ptr %22, align 8, !tbaa !50
  %24 = or i32 %23, %15
  store i32 %24, ptr %22, align 8, !tbaa !50
  br label %25

25:                                               ; preds = %5, %7, %9, %16, %21, %2
  %.0 = phi i32 [ -51, %2 ], [ 0, %21 ], [ 0, %16 ], [ -34, %9 ], [ 0, %7 ], [ 0, %5 ]
  ret i32 %.0
}